target datalayout = "e-m:e-p270:32:32-p271:32:32-p272:64:64-i64:64-i128:128-f80:128-n8:16:32:64-S128"
target triple = "x86_64-pc-linux-gnu"

@.str.92 = private unnamed_addr constant [8 x i8] c"_ERROR_\00", align 1

; Function Attrs: nounwind uwtable
define internal ptr @PrettyDecoderErrorString(i32 noundef %0) #0 {
  %2 = alloca i32, align 4
  %3 = alloca ptr, align 8
  %4 = alloca i64, align 8
  %5 = alloca ptr, align 8
  %6 = alloca i64, align 8
  store i32 %0, ptr %2, align 4, !tbaa !4
  call void @llvm.lifetime.start.p0(i64 8, ptr %3) #8
  store ptr @.str.92, ptr %3, align 8, !tbaa !56
  call void @llvm.lifetime.start.p0(i64 8, ptr %4) #8
  %7 = load ptr, ptr %3, align 8, !tbaa !56
  %8 = call i64 @strlen(ptr noundef %7) #9
  store i64 %8, ptr %4, align 8, !tbaa !52
  call void @llvm.lifetime.start.p0(i64 8, ptr %5) #8
  %9 = load i32, ptr %2, align 4, !tbaa !4
  %10 = call ptr @BrotliDecoderErrorString(i32 noundef %9)
  store ptr %10, ptr %5, align 8, !tbaa !56
  call void @llvm.lifetime.start.p0(i64 8, ptr %6) #8
  %11 = load ptr, ptr %5, align 8, !tbaa !56
  %12 = call i64 @strlen(ptr noundef %11) #9
  store i64 %12, ptr %6, align 8, !tbaa !52
  %13 = load i64, ptr %6, align 8, !tbaa !52
  %14 = load i64, ptr %4, align 8, !tbaa !52
  %15 = icmp ugt i64 %13, %14
  br i1 %15, label %16, label %27

16:                                               ; preds = %1
  %17 = load ptr, ptr %5, align 8, !tbaa !56
  %18 = load ptr, ptr %3, align 8, !tbaa !56
  %19 = load i64, ptr %4, align 8, !tbaa !52
  %20 = call i32 @strncmp(ptr noundef %17, ptr noundef %18, i64 noundef %19) #9
  %21 = icmp eq i32 %20, 0
  br i1 %21, label %22, label %26

22:                                               ; preds = %16
  %23 = load i64, ptr %4, align 8, !tbaa !52
  %24 = load ptr, ptr %5, align 8, !tbaa !56
  %25 = getelementptr inbounds nuw i8, ptr %24, i64 %23
  store ptr %25, ptr %5, align 8, !tbaa !56
  br label %26

26:                                               ; preds = %22, %16
  br label %27

27:                                               ; preds = %26, %1
  %28 = load ptr, ptr %5, align 8, !tbaa !56
  call void @llvm.lifetime.end.p0(i64 8, ptr %6) #8
  call void @llvm.lifetime.end.p0(i64 8, ptr %5) #8
  call void @llvm.lifetime.end.p0(i64 8, ptr %4) #8
  call void @llvm.lifetime.end.p0(i64 8, ptr %3) #8
  ret ptr %28
}