; Function Attrs: nounwind uwtable
define internal fastcc ptr @PrettyDecoderErrorString(i32 noundef %0) unnamed_addr #0 {
  %2 = tail call ptr @BrotliDecoderErrorString(i32 noundef %0) #21
  %3 = tail call i64 @strlen(ptr noundef nonnull dereferenceable(1) %2) #22
  %4 = icmp ugt i64 %3, 7
  br i1 %4, label %5, label %8

5:                                                ; preds = %1
  %6 = tail call i32 @strncmp(ptr noundef nonnull dereferenceable(1) %2, ptr noundef nonnull dereferenceable(8) @.str.92, i64 noundef 7) #22
  %7 = icmp eq i32 %6, 0
  %spec.select.idx = select i1 %7, i64 7, i64 0
  %spec.select = getelementptr inbounds nuw i8, ptr %2, i64 %spec.select.idx
  br label %8

8:                                                ; preds = %5, %1
  %.0 = phi ptr [ %2, %1 ], [ %spec.select, %5 ]
  ret ptr %.0
}